target datalayout = "e-m:e-p270:32:32-p271:32:32-p272:64:64-i64:64-i128:128-f80:128-n8:16:32:64-S128"
target triple = "x86_64-pc-linux-gnu"

; Function Attrs: nounwind uwtable
define internal void @compute_safe_ssd_integral_image_c(ptr noundef %0, i64 noundef %1, ptr noundef %2, i64 noundef %3, ptr noundef %4, i64 noundef %5, i32 noundef %6, i32 noundef %7) #1 {
  %9 = alloca ptr, align 8
  %10 = alloca i64, align 8
  %11 = alloca ptr, align 8
  %12 = alloca i64, align 8
  %13 = alloca ptr, align 8
  %14 = alloca i64, align 8
  %15 = alloca i32, align 4
  %16 = alloca i32, align 4
  %17 = alloca ptr, align 8
  %18 = alloca i32, align 4
  %19 = alloca i32, align 4
  %20 = alloca i32, align 4
  %21 = alloca i32, align 4
  %22 = alloca i32, align 4
  %23 = alloca i32, align 4
  %24 = alloca i32, align 4
  store ptr %0, ptr %9, align 8, !tbaa !83
  store i64 %1, ptr %10, align 8, !tbaa !82
  store ptr %2, ptr %11, align 8, !tbaa !66
  store i64 %3, ptr %12, align 8, !tbaa !82
  store ptr %4, ptr %13, align 8, !tbaa !66
  store i64 %5, ptr %14, align 8, !tbaa !82
  store i32 %6, ptr %15, align 4, !tbaa !35
  store i32 %7, ptr %16, align 4, !tbaa !35
  call void @llvm.lifetime.start.p0(i64 8, ptr %17) #10
  %25 = load ptr, ptr %9, align 8, !tbaa !83
  %26 = load i64, ptr %10, align 8, !tbaa !82
  %27 = sub i64 0, %26
  %28 = getelementptr inbounds i32, ptr %25, i64 %27
  store ptr %28, ptr %17, align 8, !tbaa !83
  call void @llvm.lifetime.start.p0(i64 4, ptr %18) #10
  store i32 0, ptr %18, align 4, !tbaa !35
  br label %29

29:                                               ; preds = %250, %8
  %30 = load i32, ptr %18, align 4, !tbaa !35
  %31 = load i32, ptr %16, align 4, !tbaa !35
  %32 = icmp slt i32 %30, %31
  br i1 %32, label %34, label %33

33:                                               ; preds = %29
  store i32 2, ptr %19, align 4
  call void @llvm.lifetime.end.p0(i64 4, ptr %18) #10
  br label %253

34:                                               ; preds = %29
  call void @llvm.lifetime.start.p0(i64 4, ptr %20) #10
  store i32 0, ptr %20, align 4, !tbaa !35
  br label %35

35:                                               ; preds = %234, %34
  %36 = load i32, ptr %20, align 4, !tbaa !35
  %37 = load i32, ptr %15, align 4, !tbaa !35
  %38 = icmp slt i32 %36, %37
  br i1 %38, label %40, label %39

39:                                               ; preds = %35
  store i32 5, ptr %19, align 4
  call void @llvm.lifetime.end.p0(i64 4, ptr %20) #10
  br label %237

40:                                               ; preds = %35
  call void @llvm.lifetime.start.p0(i64 4, ptr %21) #10
  %41 = load ptr, ptr %11, align 8, !tbaa !66
  %42 = load i32, ptr %20, align 4, !tbaa !35
  %43 = sext i32 %42 to i64
  %44 = getelementptr inbounds i8, ptr %41, i64 %43
  %45 = load i8, ptr %44, align 1, !tbaa !104
  %46 = zext i8 %45 to i32
  %47 = load ptr, ptr %13, align 8, !tbaa !66
  %48 = load i32, ptr %20, align 4, !tbaa !35
  %49 = sext i32 %48 to i64
  %50 = getelementptr inbounds i8, ptr %47, i64 %49
  %51 = load i8, ptr %50, align 1, !tbaa !104
  %52 = zext i8 %51 to i32
  %53 = sub nsw i32 %46, %52
  store i32 %53, ptr %21, align 4, !tbaa !35
  call void @llvm.lifetime.start.p0(i64 4, ptr %22) #10
  %54 = load ptr, ptr %11, align 8, !tbaa !66
  %55 = load i32, ptr %20, align 4, !tbaa !35
  %56 = add nsw i32 %55, 1
  %57 = sext i32 %56 to i64
  %58 = getelementptr inbounds i8, ptr %54, i64 %57
  %59 = load i8, ptr %58, align 1, !tbaa !104
  %60 = zext i8 %59 to i32
  %61 = load ptr, ptr %13, align 8, !tbaa !66
  %62 = load i32, ptr %20, align 4, !tbaa !35
  %63 = add nsw i32 %62, 1
  %64 = sext i32 %63 to i64
  %65 = getelementptr inbounds i8, ptr %61, i64 %64
  %66 = load i8, ptr %65, align 1, !tbaa !104
  %67 = zext i8 %66 to i32
  %68 = sub nsw i32 %60, %67
  store i32 %68, ptr %22, align 4, !tbaa !35
  call void @llvm.lifetime.start.p0(i64 4, ptr %23) #10
  %69 = load ptr, ptr %11, align 8, !tbaa !66
  %70 = load i32, ptr %20, align 4, !tbaa !35
  %71 = add nsw i32 %70, 2
  %72 = sext i32 %71 to i64
  %73 = getelementptr inbounds i8, ptr %69, i64 %72
  %74 = load i8, ptr %73, align 1, !tbaa !104
  %75 = zext i8 %74 to i32
  %76 = load ptr, ptr %13, align 8, !tbaa !66
  %77 = load i32, ptr %20, align 4, !tbaa !35
  %78 = add nsw i32 %77, 2
  %79 = sext i32 %78 to i64
  %80 = getelementptr inbounds i8, ptr %76, i64 %79
  %81 = load i8, ptr %80, align 1, !tbaa !104
  %82 = zext i8 %81 to i32
  %83 = sub nsw i32 %75, %82
  store i32 %83, ptr %23, align 4, !tbaa !35
  call void @llvm.lifetime.start.p0(i64 4, ptr %24) #10
  %84 = load ptr, ptr %11, align 8, !tbaa !66
  %85 = load i32, ptr %20, align 4, !tbaa !35
  %86 = add nsw i32 %85, 3
  %87 = sext i32 %86 to i64
  %88 = getelementptr inbounds i8, ptr %84, i64 %87
  %89 = load i8, ptr %88, align 1, !tbaa !104
  %90 = zext i8 %89 to i32
  %91 = load ptr, ptr %13, align 8, !tbaa !66
  %92 = load i32, ptr %20, align 4, !tbaa !35
  %93 = add nsw i32 %92, 3
  %94 = sext i32 %93 to i64
  %95 = getelementptr inbounds i8, ptr %91, i64 %94
  %96 = load i8, ptr %95, align 1, !tbaa !104
  %97 = zext i8 %96 to i32
  %98 = sub nsw i32 %90, %97
  store i32 %98, ptr %24, align 4, !tbaa !35
  %99 = load ptr, ptr %17, align 8, !tbaa !83
  %100 = load i32, ptr %20, align 4, !tbaa !35
  %101 = sext i32 %100 to i64
  %102 = getelementptr inbounds i32, ptr %99, i64 %101
  %103 = load i32, ptr %102, align 4, !tbaa !35
  %104 = load ptr, ptr %17, align 8, !tbaa !83
  %105 = load i32, ptr %20, align 4, !tbaa !35
  %106 = sub nsw i32 %105, 1
  %107 = sext i32 %106 to i64
  %108 = getelementptr inbounds i32, ptr %104, i64 %107
  %109 = load i32, ptr %108, align 4, !tbaa !35
  %110 = sub i32 %103, %109
  %111 = load i32, ptr %21, align 4, !tbaa !35
  %112 = load i32, ptr %21, align 4, !tbaa !35
  %113 = mul nsw i32 %111, %112
  %114 = add i32 %110, %113
  %115 = load ptr, ptr %9, align 8, !tbaa !83
  %116 = load i32, ptr %20, align 4, !tbaa !35
  %117 = sext i32 %116 to i64
  %118 = getelementptr inbounds i32, ptr %115, i64 %117
  store i32 %114, ptr %118, align 4, !tbaa !35
  %119 = load ptr, ptr %17, align 8, !tbaa !83
  %120 = load i32, ptr %20, align 4, !tbaa !35
  %121 = add nsw i32 %120, 1
  %122 = sext i32 %121 to i64
  %123 = getelementptr inbounds i32, ptr %119, i64 %122
  %124 = load i32, ptr %123, align 4, !tbaa !35
  %125 = load ptr, ptr %17, align 8, !tbaa !83
  %126 = load i32, ptr %20, align 4, !tbaa !35
  %127 = sext i32 %126 to i64
  %128 = getelementptr inbounds i32, ptr %125, i64 %127
  %129 = load i32, ptr %128, align 4, !tbaa !35
  %130 = sub i32 %124, %129
  %131 = load i32, ptr %22, align 4, !tbaa !35
  %132 = load i32, ptr %22, align 4, !tbaa !35
  %133 = mul nsw i32 %131, %132
  %134 = add i32 %130, %133
  %135 = load ptr, ptr %9, align 8, !tbaa !83
  %136 = load i32, ptr %20, align 4, !tbaa !35
  %137 = add nsw i32 %136, 1
  %138 = sext i32 %137 to i64
  %139 = getelementptr inbounds i32, ptr %135, i64 %138
  store i32 %134, ptr %139, align 4, !tbaa !35
  %140 = load ptr, ptr %17, align 8, !tbaa !83
  %141 = load i32, ptr %20, align 4, !tbaa !35
  %142 = add nsw i32 %141, 2
  %143 = sext i32 %142 to i64
  %144 = getelementptr inbounds i32, ptr %140, i64 %143
  %145 = load i32, ptr %144, align 4, !tbaa !35
  %146 = load ptr, ptr %17, align 8, !tbaa !83
  %147 = load i32, ptr %20, align 4, !tbaa !35
  %148 = add nsw i32 %147, 1
  %149 = sext i32 %148 to i64
  %150 = getelementptr inbounds i32, ptr %146, i64 %149
  %151 = load i32, ptr %150, align 4, !tbaa !35
  %152 = sub i32 %145, %151
  %153 = load i32, ptr %23, align 4, !tbaa !35
  %154 = load i32, ptr %23, align 4, !tbaa !35
  %155 = mul nsw i32 %153, %154
  %156 = add i32 %152, %155
  %157 = load ptr, ptr %9, align 8, !tbaa !83
  %158 = load i32, ptr %20, align 4, !tbaa !35
  %159 = add nsw i32 %158, 2
  %160 = sext i32 %159 to i64
  %161 = getelementptr inbounds i32, ptr %157, i64 %160
  store i32 %156, ptr %161, align 4, !tbaa !35
  %162 = load ptr, ptr %17, align 8, !tbaa !83
  %163 = load i32, ptr %20, align 4, !tbaa !35
  %164 = add nsw i32 %163, 3
  %165 = sext i32 %164 to i64
  %166 = getelementptr inbounds i32, ptr %162, i64 %165
  %167 = load i32, ptr %166, align 4, !tbaa !35
  %168 = load ptr, ptr %17, align 8, !tbaa !83
  %169 = load i32, ptr %20, align 4, !tbaa !35
  %170 = add nsw i32 %169, 2
  %171 = sext i32 %170 to i64
  %172 = getelementptr inbounds i32, ptr %168, i64 %171
  %173 = load i32, ptr %172, align 4, !tbaa !35
  %174 = sub i32 %167, %173
  %175 = load i32, ptr %24, align 4, !tbaa !35
  %176 = load i32, ptr %24, align 4, !tbaa !35
  %177 = mul nsw i32 %175, %176
  %178 = add i32 %174, %177
  %179 = load ptr, ptr %9, align 8, !tbaa !83
  %180 = load i32, ptr %20, align 4, !tbaa !35
  %181 = add nsw i32 %180, 3
  %182 = sext i32 %181 to i64
  %183 = getelementptr inbounds i32, ptr %179, i64 %182
  store i32 %178, ptr %183, align 4, !tbaa !35
  %184 = load ptr, ptr %9, align 8, !tbaa !83
  %185 = load i32, ptr %20, align 4, !tbaa !35
  %186 = sub nsw i32 %185, 1
  %187 = sext i32 %186 to i64
  %188 = getelementptr inbounds i32, ptr %184, i64 %187
  %189 = load i32, ptr %188, align 4, !tbaa !35
  %190 = load ptr, ptr %9, align 8, !tbaa !83
  %191 = load i32, ptr %20, align 4, !tbaa !35
  %192 = sext i32 %191 to i64
  %193 = getelementptr inbounds i32, ptr %190, i64 %192
  %194 = load i32, ptr %193, align 4, !tbaa !35
  %195 = add i32 %194, %189
  store i32 %195, ptr %193, align 4, !tbaa !35
  %196 = load ptr, ptr %9, align 8, !tbaa !83
  %197 = load i32, ptr %20, align 4, !tbaa !35
  %198 = sext i32 %197 to i64
  %199 = getelementptr inbounds i32, ptr %196, i64 %198
  %200 = load i32, ptr %199, align 4, !tbaa !35
  %201 = load ptr, ptr %9, align 8, !tbaa !83
  %202 = load i32, ptr %20, align 4, !tbaa !35
  %203 = add nsw i32 %202, 1
  %204 = sext i32 %203 to i64
  %205 = getelementptr inbounds i32, ptr %201, i64 %204
  %206 = load i32, ptr %205, align 4, !tbaa !35
  %207 = add i32 %206, %200
  store i32 %207, ptr %205, align 4, !tbaa !35
  %208 = load ptr, ptr %9, align 8, !tbaa !83
  %209 = load i32, ptr %20, align 4, !tbaa !35
  %210 = add nsw i32 %209, 1
  %211 = sext i32 %210 to i64
  %212 = getelementptr inbounds i32, ptr %208, i64 %211
  %213 = load i32, ptr %212, align 4, !tbaa !35
  %214 = load ptr, ptr %9, align 8, !tbaa !83
  %215 = load i32, ptr %20, align 4, !tbaa !35
  %216 = add nsw i32 %215, 2
  %217 = sext i32 %216 to i64
  %218 = getelementptr inbounds i32, ptr %214, i64 %217
  %219 = load i32, ptr %218, align 4, !tbaa !35
  %220 = add i32 %219, %213
  store i32 %220, ptr %218, align 4, !tbaa !35
  %221 = load ptr, ptr %9, align 8, !tbaa !83
  %222 = load i32, ptr %20, align 4, !tbaa !35
  %223 = add nsw i32 %222, 2
  %224 = sext i32 %223 to i64
  %225 = getelementptr inbounds i32, ptr %221, i64 %224
  %226 = load i32, ptr %225, align 4, !tbaa !35
  %227 = load ptr, ptr %9, align 8, !tbaa !83
  %228 = load i32, ptr %20, align 4, !tbaa !35
  %229 = add nsw i32 %228, 3
  %230 = sext i32 %229 to i64
  %231 = getelementptr inbounds i32, ptr %227, i64 %230
  %232 = load i32, ptr %231, align 4, !tbaa !35
  %233 = add i32 %232, %226
  store i32 %233, ptr %231, align 4, !tbaa !35
  call void @llvm.lifetime.end.p0(i64 4, ptr %24) #10
  call void @llvm.lifetime.end.p0(i64 4, ptr %23) #10
  call void @llvm.lifetime.end.p0(i64 4, ptr %22) #10
  call void @llvm.lifetime.end.p0(i64 4, ptr %21) #10
  br label %234

234:                                              ; preds = %40
  %235 = load i32, ptr %20, align 4, !tbaa !35
  %236 = add nsw i32 %235, 4
  store i32 %236, ptr %20, align 4, !tbaa !35
  br label %35, !llvm.loop !109

237:                                              ; preds = %39
  %238 = load i64, ptr %12, align 8, !tbaa !82
  %239 = load ptr, ptr %11, align 8, !tbaa !66
  %240 = getelementptr inbounds i8, ptr %239, i64 %238
  store ptr %240, ptr %11, align 8, !tbaa !66
  %241 = load i64, ptr %14, align 8, !tbaa !82
  %242 = load ptr, ptr %13, align 8, !tbaa !66
  %243 = getelementptr inbounds i8, ptr %242, i64 %241
  store ptr %243, ptr %13, align 8, !tbaa !66
  %244 = load i64, ptr %10, align 8, !tbaa !82
  %245 = load ptr, ptr %9, align 8, !tbaa !83
  %246 = getelementptr inbounds i32, ptr %245, i64 %244
  store ptr %246, ptr %9, align 8, !tbaa !83
  %247 = load i64, ptr %10, align 8, !tbaa !82
  %248 = load ptr, ptr %17, align 8, !tbaa !83
  %249 = getelementptr inbounds i32, ptr %248, i64 %247
  store ptr %249, ptr %17, align 8, !tbaa !83
  br label %250

250:                                              ; preds = %237
  %251 = load i32, ptr %18, align 4, !tbaa !35
  %252 = add nsw i32 %251, 1
  store i32 %252, ptr %18, align 4, !tbaa !35
  br label %29, !llvm.loop !110

253:                                              ; preds = %33
  call void @llvm.lifetime.end.p0(i64 8, ptr %17) #10
  ret void
}