; Function Attrs: nofree norecurse nosync nounwind memory(argmem: readwrite) uwtable
define internal void @compute_safe_ssd_integral_image_c(ptr noundef captures(none) %0, i64 noundef %1, ptr noundef readonly captures(none) %2, i64 noundef %3, ptr noundef readonly captures(none) %4, i64 noundef %5, i32 noundef %6, i32 noundef %7) #7 {
  %9 = icmp sgt i32 %7, 0
  %10 = icmp sgt i32 %6, 0
  %or.cond = and i1 %9, %10
  br i1 %or.cond, label %.preheader.us.preheader, label %._crit_edge90

.preheader.us.preheader:                          ; preds = %8
  %11 = sub i64 0, %1
  %12 = getelementptr inbounds i32, ptr %0, i64 %11
  %13 = zext nneg i32 %6 to i64
  br label %.preheader.us

.preheader.us:                                    ; preds = %.preheader.us.preheader, %._crit_edge.us
  %.089.us = phi ptr [ %85, %._crit_edge.us ], [ %0, %.preheader.us.preheader ]
  %.07988.us = phi ptr [ %83, %._crit_edge.us ], [ %2, %.preheader.us.preheader ]
  %.08087.us = phi ptr [ %84, %._crit_edge.us ], [ %4, %.preheader.us.preheader ]
  %.08186.us = phi ptr [ %86, %._crit_edge.us ], [ %12, %.preheader.us.preheader ]
  %.08385.us = phi i32 [ %87, %._crit_edge.us ], [ 0, %.preheader.us.preheader ]
  br label %14

14:                                               ; preds = %.preheader.us, %14
  %indvars.iv = phi i64 [ 0, %.preheader.us ], [ %indvars.iv.next, %14 ]
  %15 = getelementptr inbounds nuw i8, ptr %.07988.us, i64 %indvars.iv
  %16 = load i8, ptr %15, align 1, !tbaa !68
  %17 = zext i8 %16 to i32
  %18 = getelementptr inbounds nuw i8, ptr %.08087.us, i64 %indvars.iv
  %19 = load i8, ptr %18, align 1, !tbaa !68
  %20 = zext i8 %19 to i32
  %21 = sub nsw i32 %17, %20
  %22 = or disjoint i64 %indvars.iv, 1
  %23 = getelementptr inbounds nuw i8, ptr %.07988.us, i64 %22
  %24 = load i8, ptr %23, align 1, !tbaa !68
  %25 = zext i8 %24 to i32
  %26 = getelementptr inbounds nuw i8, ptr %.08087.us, i64 %22
  %27 = load i8, ptr %26, align 1, !tbaa !68
  %28 = zext i8 %27 to i32
  %29 = sub nsw i32 %25, %28
  %30 = or disjoint i64 %indvars.iv, 2
  %31 = getelementptr inbounds nuw i8, ptr %.07988.us, i64 %30
  %32 = load i8, ptr %31, align 1, !tbaa !68
  %33 = zext i8 %32 to i32
  %34 = getelementptr inbounds nuw i8, ptr %.08087.us, i64 %30
  %35 = load i8, ptr %34, align 1, !tbaa !68
  %36 = zext i8 %35 to i32
  %37 = sub nsw i32 %33, %36
  %38 = or disjoint i64 %indvars.iv, 3
  %39 = getelementptr inbounds nuw i8, ptr %.07988.us, i64 %38
  %40 = load i8, ptr %39, align 1, !tbaa !68
  %41 = zext i8 %40 to i32
  %42 = getelementptr inbounds nuw i8, ptr %.08087.us, i64 %38
  %43 = load i8, ptr %42, align 1, !tbaa !68
  %44 = zext i8 %43 to i32
  %45 = sub nsw i32 %41, %44
  %46 = getelementptr inbounds nuw i32, ptr %.08186.us, i64 %indvars.iv
  %47 = load i32, ptr %46, align 4, !tbaa !61
  %48 = add nsw i64 %indvars.iv, -1
  %49 = getelementptr inbounds i32, ptr %.08186.us, i64 %48
  %50 = load i32, ptr %49, align 4, !tbaa !61
  %51 = sub i32 %47, %50
  %52 = mul nsw i32 %21, %21
  %53 = add i32 %51, %52
  %54 = getelementptr inbounds nuw i32, ptr %.089.us, i64 %indvars.iv
  store i32 %53, ptr %54, align 4, !tbaa !61
  %55 = getelementptr inbounds nuw i32, ptr %.08186.us, i64 %22
  %56 = load i32, ptr %55, align 4, !tbaa !61
  %57 = load i32, ptr %46, align 4, !tbaa !61
  %58 = sub i32 %56, %57
  %59 = mul nsw i32 %29, %29
  %60 = add i32 %58, %59
  %61 = getelementptr inbounds nuw i32, ptr %.089.us, i64 %22
  store i32 %60, ptr %61, align 4, !tbaa !61
  %62 = getelementptr inbounds nuw i32, ptr %.08186.us, i64 %30
  %63 = load i32, ptr %62, align 4, !tbaa !61
  %64 = load i32, ptr %55, align 4, !tbaa !61
  %65 = sub i32 %63, %64
  %66 = mul nsw i32 %37, %37
  %67 = add i32 %65, %66
  %68 = getelementptr inbounds nuw i32, ptr %.089.us, i64 %30
  store i32 %67, ptr %68, align 4, !tbaa !61
  %69 = getelementptr inbounds nuw i32, ptr %.08186.us, i64 %38
  %70 = load i32, ptr %69, align 4, !tbaa !61
  %71 = load i32, ptr %62, align 4, !tbaa !61
  %72 = sub i32 %70, %71
  %73 = mul nsw i32 %45, %45
  %74 = add i32 %72, %73
  %75 = getelementptr inbounds nuw i32, ptr %.089.us, i64 %38
  %76 = getelementptr inbounds i32, ptr %.089.us, i64 %48
  %77 = load i32, ptr %76, align 4, !tbaa !61
  %78 = add i32 %77, %53
  store i32 %78, ptr %54, align 4, !tbaa !61
  %79 = add i32 %78, %60
  store i32 %79, ptr %61, align 4, !tbaa !61
  %80 = add i32 %79, %67
  store i32 %80, ptr %68, align 4, !tbaa !61
  %81 = add i32 %80, %74
  store i32 %81, ptr %75, align 4, !tbaa !61
  %indvars.iv.next = add nuw nsw i64 %indvars.iv, 4
  %82 = icmp samesign ult i64 %indvars.iv.next, %13
  br i1 %82, label %14, label %._crit_edge.us, !llvm.loop !95

._crit_edge.us:                                   ; preds = %14
  %83 = getelementptr inbounds i8, ptr %.07988.us, i64 %3
  %84 = getelementptr inbounds i8, ptr %.08087.us, i64 %5
  %85 = getelementptr inbounds i32, ptr %.089.us, i64 %1
  %86 = getelementptr inbounds i32, ptr %.08186.us, i64 %1
  %87 = add nuw nsw i32 %.08385.us, 1
  %exitcond.not = icmp eq i32 %87, %7
  br i1 %exitcond.not, label %._crit_edge90, label %.preheader.us, !llvm.loop !96

._crit_edge90:                                    ; preds = %._crit_edge.us, %8
  ret void
}